; Function Attrs: nounwind uwtable
define void @Sle_ManCollectCutFaninsOne(ptr readnone captures(none) %0, i32 noundef %1, ptr noundef readonly captures(none) %2, ptr noundef readonly captures(none) %3, ptr noundef captures(none) %4, ptr noundef readonly captures(none) %5) local_unnamed_addr #0 {
  %7 = getelementptr i8, ptr %2, i64 8
  %.val35 = load ptr, ptr %7, align 8, !tbaa !28
  %8 = sext i32 %1 to i64
  %9 = getelementptr inbounds i32, ptr %.val35, i64 %8
  %10 = load i32, ptr %9, align 4, !tbaa !29
  %11 = sext i32 %10 to i64
  %12 = getelementptr inbounds i32, ptr %.val35, i64 %11
  %13 = load i32, ptr %12, align 4, !tbaa !29
  %14 = icmp sgt i32 %13, 0
  br i1 %14, label %.lr.ph47, label %.preheader

.lr.ph47:                                         ; preds = %6
  %15 = getelementptr i8, ptr %3, i64 8
  %16 = getelementptr i8, ptr %5, i64 8
  %17 = getelementptr inbounds nuw i8, ptr %4, i64 4
  %.phi.trans.insert.i = getelementptr inbounds nuw i8, ptr %4, i64 8
  br label %23

.preheader:                                       ; preds = %._crit_edge, %6
  %18 = getelementptr i8, ptr %4, i64 4
  %.val3848 = load i32, ptr %18, align 4, !tbaa !31
  %19 = icmp sgt i32 %.val3848, 0
  br i1 %19, label %.lr.ph50, label %.critedge

.lr.ph50:                                         ; preds = %.preheader
  %20 = getelementptr i8, ptr %4, i64 8
  %.val = load ptr, ptr %20, align 8, !tbaa !28
  %21 = getelementptr inbounds nuw i8, ptr %5, i64 8
  %22 = load ptr, ptr %21, align 8, !tbaa !57
  br label %77

23:                                               ; preds = %.lr.ph47, %._crit_edge
  %24 = phi i32 [ %13, %.lr.ph47 ], [ %73, %._crit_edge ]
  %.044 = phi i32 [ 0, %.lr.ph47 ], [ %74, %._crit_edge ]
  %.pn43 = phi ptr [ %12, %.lr.ph47 ], [ %75, %._crit_edge ]
  %.03345 = getelementptr inbounds nuw i8, ptr %.pn43, i64 4
  %.033.val37 = load i32, ptr %.03345, align 4, !tbaa !29
  %25 = and i32 %.033.val37, 15
  %26 = getelementptr inbounds nuw i8, ptr %.pn43, i64 8
  %.not51 = icmp eq i32 %25, 0
  br i1 %.not51, label %._crit_edge, label %.lr.ph.preheader

.lr.ph.preheader:                                 ; preds = %23
  %wide.trip.count = zext nneg i32 %25 to i64
  br label %.lr.ph

.lr.ph:                                           ; preds = %.lr.ph.preheader, %71
  %indvars.iv = phi i64 [ 0, %.lr.ph.preheader ], [ %indvars.iv.next, %71 ]
  %27 = getelementptr inbounds nuw i32, ptr %26, i64 %indvars.iv
  %28 = load i32, ptr %27, align 4, !tbaa !29
  %.val40 = load ptr, ptr %15, align 8, !tbaa !57
  %29 = ashr i32 %28, 5
  %30 = sext i32 %29 to i64
  %31 = getelementptr inbounds i32, ptr %.val40, i64 %30
  %32 = load i32, ptr %31, align 4, !tbaa !29
  %33 = and i32 %28, 31
  %34 = shl nuw i32 1, %33
  %35 = and i32 %32, %34
  %.not = icmp eq i32 %35, 0
  br i1 %.not, label %71, label %36

36:                                               ; preds = %.lr.ph
  %.val39 = load ptr, ptr %16, align 8, !tbaa !57
  %37 = getelementptr inbounds i32, ptr %.val39, i64 %30
  %38 = load i32, ptr %37, align 4, !tbaa !29
  %39 = and i32 %38, %34
  %.not34 = icmp eq i32 %39, 0
  br i1 %.not34, label %40, label %71

40:                                               ; preds = %36
  %41 = or i32 %38, %34
  store i32 %41, ptr %37, align 4, !tbaa !29
  %42 = load i32, ptr %27, align 4, !tbaa !29
  %43 = load i32, ptr %17, align 4, !tbaa !31
  %44 = load i32, ptr %4, align 8, !tbaa !30
  %45 = icmp eq i32 %43, %44
  br i1 %45, label %46, label %.Vec_IntGrow.exit10_crit_edge.i

.Vec_IntGrow.exit10_crit_edge.i:                  ; preds = %40
  %.pre.i = load ptr, ptr %.phi.trans.insert.i, align 8, !tbaa !28
  br label %Vec_IntPush.exit

46:                                               ; preds = %40
  %47 = icmp slt i32 %43, 16
  br i1 %47, label %48, label %55

48:                                               ; preds = %46
  %49 = load ptr, ptr %.phi.trans.insert.i, align 8, !tbaa !28
  %.not9.i.i = icmp eq ptr %49, null
  br i1 %.not9.i.i, label %52, label %50

50:                                               ; preds = %48
  %51 = tail call dereferenceable_or_null(64) ptr @realloc(ptr noundef nonnull %49, i64 noundef 64) #23
  br label %Vec_IntGrow.exit.i

52:                                               ; preds = %48
  %53 = tail call noalias dereferenceable_or_null(64) ptr @malloc(i64 noundef 64) #24
  br label %Vec_IntGrow.exit.i

Vec_IntGrow.exit.i:                               ; preds = %52, %50
  %54 = phi ptr [ %51, %50 ], [ %53, %52 ]
  store ptr %54, ptr %.phi.trans.insert.i, align 8, !tbaa !28
  store i32 16, ptr %4, align 8, !tbaa !30
  br label %Vec_IntPush.exit

55:                                               ; preds = %46
  %56 = shl nuw nsw i32 %43, 1
  %57 = load ptr, ptr %.phi.trans.insert.i, align 8, !tbaa !28
  %.not9.i9.i = icmp eq ptr %57, null
  %58 = zext nneg i32 %56 to i64
  %59 = shl nuw nsw i64 %58, 2
  br i1 %.not9.i9.i, label %62, label %60

60:                                               ; preds = %55
  %61 = tail call ptr @realloc(ptr noundef nonnull %57, i64 noundef %59) #23
  br label %64

62:                                               ; preds = %55
  %63 = tail call noalias ptr @malloc(i64 noundef %59) #24
  br label %64

64:                                               ; preds = %62, %60
  %65 = phi ptr [ %61, %60 ], [ %63, %62 ]
  store ptr %65, ptr %.phi.trans.insert.i, align 8, !tbaa !28
  store i32 %56, ptr %4, align 8, !tbaa !30
  br label %Vec_IntPush.exit

Vec_IntPush.exit:                                 ; preds = %.Vec_IntGrow.exit10_crit_edge.i, %Vec_IntGrow.exit.i, %64
  %66 = phi ptr [ %.pre.i, %.Vec_IntGrow.exit10_crit_edge.i ], [ %65, %64 ], [ %54, %Vec_IntGrow.exit.i ]
  %67 = load i32, ptr %17, align 4, !tbaa !31
  %68 = add nsw i32 %67, 1
  store i32 %68, ptr %17, align 4, !tbaa !31
  %69 = sext i32 %67 to i64
  %70 = getelementptr inbounds i32, ptr %66, i64 %69
  store i32 %42, ptr %70, align 4, !tbaa !29
  br label %71

71:                                               ; preds = %.lr.ph, %36, %Vec_IntPush.exit
  %indvars.iv.next = add nuw nsw i64 %indvars.iv, 1
  %exitcond.not = icmp eq i64 %indvars.iv.next, %wide.trip.count
  br i1 %exitcond.not, label %._crit_edge.loopexit, label %.lr.ph, !llvm.loop !61

._crit_edge.loopexit:                             ; preds = %71
  %.033.val.pre = load i32, ptr %.03345, align 4, !tbaa !29
  %.pre = load i32, ptr %12, align 4, !tbaa !29
  %.pre57 = and i32 %.033.val.pre, 15
  %72 = zext nneg i32 %.pre57 to i64
  br label %._crit_edge

._crit_edge:                                      ; preds = %._crit_edge.loopexit, %23
  %.pre-phi = phi i64 [ %72, %._crit_edge.loopexit ], [ 0, %23 ]
  %73 = phi i32 [ %.pre, %._crit_edge.loopexit ], [ %24, %23 ]
  %74 = add nuw nsw i32 %.044, 1
  %75 = getelementptr inbounds nuw i32, ptr %.03345, i64 %.pre-phi
  %76 = icmp slt i32 %74, %73
  br i1 %76, label %23, label %.preheader, !llvm.loop !62

77:                                               ; preds = %.lr.ph50, %77
  %indvars.iv53 = phi i64 [ 0, %.lr.ph50 ], [ %indvars.iv.next54, %77 ]
  %78 = getelementptr inbounds nuw i32, ptr %.val, i64 %indvars.iv53
  %79 = load i32, ptr %78, align 4, !tbaa !29
  %80 = and i32 %79, 31
  %81 = shl nuw i32 1, %80
  %82 = xor i32 %81, -1
  %83 = ashr i32 %79, 5
  %84 = sext i32 %83 to i64
  %85 = getelementptr inbounds i32, ptr %22, i64 %84
  %86 = load i32, ptr %85, align 4, !tbaa !29
  %87 = and i32 %86, %82
  store i32 %87, ptr %85, align 4, !tbaa !29
  %indvars.iv.next54 = add nuw nsw i64 %indvars.iv53, 1
  %.val38 = load i32, ptr %18, align 4, !tbaa !31
  %88 = sext i32 %.val38 to i64
  %89 = icmp slt i64 %indvars.iv.next54, %88
  br i1 %89, label %77, label %.critedge, !llvm.loop !63

.critedge:                                        ; preds = %77, %.preheader
  ret void
}